target datalayout = "e-m:e-p270:32:32-p271:32:32-p272:64:64-i64:64-i128:128-f80:128-n8:16:32:64-S128"
target triple = "x86_64-pc-linux-gnu"

; Function Attrs: nounwind uwtable
define void @rgb12tobgr12(ptr noundef %0, ptr noundef %1, i32 noundef %2) #0 {
  %4 = alloca ptr, align 8
  %5 = alloca ptr, align 8
  %6 = alloca i32, align 4
  %7 = alloca ptr, align 8
  %8 = alloca ptr, align 8
  %9 = alloca i32, align 4
  %10 = alloca i32, align 4
  %11 = alloca i32, align 4
  store ptr %0, ptr %4, align 8, !tbaa !4
  store ptr %1, ptr %5, align 8, !tbaa !4
  store i32 %2, ptr %6, align 4, !tbaa !9
  call void @llvm.lifetime.start.p0(i64 8, ptr %7) #5
  %12 = load ptr, ptr %5, align 8, !tbaa !4
  store ptr %12, ptr %7, align 8, !tbaa !20
  call void @llvm.lifetime.start.p0(i64 8, ptr %8) #5
  %13 = load ptr, ptr %4, align 8, !tbaa !4
  store ptr %13, ptr %8, align 8, !tbaa !20
  call void @llvm.lifetime.start.p0(i64 4, ptr %9) #5
  call void @llvm.lifetime.start.p0(i64 4, ptr %10) #5
  %14 = load i32, ptr %6, align 4, !tbaa !9
  %15 = ashr i32 %14, 1
  store i32 %15, ptr %10, align 4, !tbaa !9
  store i32 0, ptr %9, align 4, !tbaa !9
  br label %16

16:                                               ; preds = %41, %3
  %17 = load i32, ptr %9, align 4, !tbaa !9
  %18 = load i32, ptr %10, align 4, !tbaa !9
  %19 = icmp slt i32 %17, %18
  br i1 %19, label %20, label %44

20:                                               ; preds = %16
  call void @llvm.lifetime.start.p0(i64 4, ptr %11) #5
  %21 = load ptr, ptr %8, align 8, !tbaa !20
  %22 = load i32, ptr %9, align 4, !tbaa !9
  %23 = sext i32 %22 to i64
  %24 = getelementptr inbounds i16, ptr %21, i64 %23
  %25 = load i16, ptr %24, align 2, !tbaa !22
  %26 = zext i16 %25 to i32
  store i32 %26, ptr %11, align 4, !tbaa !9
  %27 = load i32, ptr %11, align 4, !tbaa !9
  %28 = shl i32 %27, 8
  %29 = load i32, ptr %11, align 4, !tbaa !9
  %30 = and i32 %29, 240
  %31 = or i32 %28, %30
  %32 = load i32, ptr %11, align 4, !tbaa !9
  %33 = lshr i32 %32, 8
  %34 = or i32 %31, %33
  %35 = and i32 %34, 4095
  %36 = trunc i32 %35 to i16
  %37 = load ptr, ptr %7, align 8, !tbaa !20
  %38 = load i32, ptr %9, align 4, !tbaa !9
  %39 = sext i32 %38 to i64
  %40 = getelementptr inbounds i16, ptr %37, i64 %39
  store i16 %36, ptr %40, align 2, !tbaa !22
  call void @llvm.lifetime.end.p0(i64 4, ptr %11) #5
  br label %41

41:                                               ; preds = %20
  %42 = load i32, ptr %9, align 4, !tbaa !9
  %43 = add nsw i32 %42, 1
  store i32 %43, ptr %9, align 4, !tbaa !9
  br label %16, !llvm.loop !33

44:                                               ; preds = %16
  call void @llvm.lifetime.end.p0(i64 4, ptr %10) #5
  call void @llvm.lifetime.end.p0(i64 4, ptr %9) #5
  call void @llvm.lifetime.end.p0(i64 8, ptr %8) #5
  call void @llvm.lifetime.end.p0(i64 8, ptr %7) #5
  ret void
}